; Function Attrs: mustprogress uwtable
define hidden void @_ZN2cv11bioinspired12RetinaFilter15clearAllBuffersEv(ptr noundef nonnull align 8 dereferenceable(1217) %0) local_unnamed_addr #3 align 2 {
  %2 = getelementptr inbounds nuw i8, ptr %0, i64 56
  %3 = load i64, ptr %2, align 8, !tbaa !3
  %.not3.i.i.i.i.i = icmp eq i64 %3, 0
  br i1 %.not3.i.i.i.i.i, label %_ZN2cv11bioinspired17BasicRetinaFilter17clearOutputBufferEv.exit.i, label %.lr.ph.i.i.i.preheader.i.i

.lr.ph.i.i.i.preheader.i.i:                       ; preds = %1
  %4 = getelementptr inbounds nuw i8, ptr %0, i64 64
  %5 = load ptr, ptr %4, align 8, !tbaa !10
  %6 = shl nuw i64 %3, 2
  tail call void @llvm.memset.p0.i64(ptr align 4 %5, i8 0, i64 %6, i1 false), !tbaa !61, !alias.scope !75
  br label %_ZN2cv11bioinspired17BasicRetinaFilter17clearOutputBufferEv.exit.i

_ZN2cv11bioinspired17BasicRetinaFilter17clearOutputBufferEv.exit.i: ; preds = %.lr.ph.i.i.i.preheader.i.i, %1
  %7 = getelementptr inbounds nuw i8, ptr %0, i64 112
  %8 = load i64, ptr %7, align 8, !tbaa !3
  %.not3.i.i.i.i = icmp eq i64 %8, 0
  br i1 %.not3.i.i.i.i, label %_ZN2cv11bioinspired17BasicRetinaFilter15clearAllBuffersEv.exit, label %.lr.ph.i.i.preheader.i.i

.lr.ph.i.i.preheader.i.i:                         ; preds = %_ZN2cv11bioinspired17BasicRetinaFilter17clearOutputBufferEv.exit.i
  %9 = getelementptr inbounds nuw i8, ptr %0, i64 120
  %10 = load ptr, ptr %9, align 8, !tbaa !10
  %11 = shl nuw i64 %8, 2
  tail call void @llvm.memset.p0.i64(ptr align 4 %10, i8 0, i64 %11, i1 false), !tbaa !61, !alias.scope !78
  br label %_ZN2cv11bioinspired17BasicRetinaFilter15clearAllBuffersEv.exit

_ZN2cv11bioinspired17BasicRetinaFilter15clearAllBuffersEv.exit: ; preds = %_ZN2cv11bioinspired17BasicRetinaFilter17clearOutputBufferEv.exit.i, %.lr.ph.i.i.preheader.i.i
  %12 = getelementptr inbounds nuw i8, ptr %0, i64 216
  tail call void @_ZN2cv11bioinspired17ParvoRetinaFilter15clearAllBuffersEv(ptr noundef nonnull align 8 dereferenceable(304) %12)
  %13 = getelementptr inbounds nuw i8, ptr %0, i64 520
  tail call void @_ZN2cv11bioinspired17MagnoRetinaFilter15clearAllBuffersEv(ptr noundef nonnull align 8 dereferenceable(324) %13)
  %14 = getelementptr inbounds nuw i8, ptr %0, i64 848
  tail call void @_ZN2cv11bioinspired11RetinaColor15clearAllBuffersEv(ptr noundef nonnull align 8 dereferenceable(349) %14)
  %15 = getelementptr inbounds nuw i8, ptr %0, i64 1200
  %16 = load ptr, ptr %15, align 8, !tbaa !11
  %.not = icmp eq ptr %16, null
  br i1 %.not, label %18, label %17

17:                                               ; preds = %_ZN2cv11bioinspired17BasicRetinaFilter15clearAllBuffersEv.exit
  tail call void @_ZN2cv11bioinspired21ImageLogPolProjection15clearAllBuffersEv(ptr noundef nonnull align 8 dereferenceable(301) %16)
  br label %18

18:                                               ; preds = %17, %_ZN2cv11bioinspired17BasicRetinaFilter15clearAllBuffersEv.exit
  %19 = getelementptr inbounds nuw i8, ptr %0, i64 320
  %20 = load ptr, ptr %19, align 8, !tbaa !10
  %21 = getelementptr inbounds nuw i8, ptr %20, i64 8
  %22 = load float, ptr %21, align 4, !tbaa !61
  %23 = getelementptr inbounds nuw i8, ptr %20, i64 20
  %24 = load float, ptr %23, align 4, !tbaa !61
  %25 = fadd float %22, %24
  %26 = getelementptr inbounds nuw i8, ptr %0, i64 624
  %27 = load ptr, ptr %26, align 8, !tbaa !10
  %28 = getelementptr inbounds nuw i8, ptr %27, i64 8
  %29 = load float, ptr %28, align 4, !tbaa !61
  %30 = fadd float %25, %29
  %31 = fptoui float %30 to i32
  %32 = getelementptr inbounds nuw i8, ptr %0, i64 8
  store i32 %31, ptr %32, align 8, !tbaa !60
  %33 = getelementptr inbounds nuw i8, ptr %0, i64 4
  store i32 0, ptr %33, align 4, !tbaa !59
  ret void
}